; Function Attrs: mustprogress uwtable
define hidden void @_ZN4cvc58internal10IntBlaster4pow2Ej(ptr noalias sret(%"class.cvc5::internal::NodeTemplate") align 8 %agg.result, ptr nocapture noundef nonnull readonly align 8 dereferenceable(468) %this, i32 noundef %k) local_unnamed_addr #3 align 2 personality ptr @__gxx_personality_v0 {
entry:
  %ref.tmp = alloca %"class.cvc5::internal::Rational", align 8
  %d_nm = getelementptr inbounds i8, ptr %this, i64 240
  %0 = load ptr, ptr %d_nm, align 8
  call fastcc void @_ZN4cvc58internal12_GLOBAL__N_17intpow2Ej(ptr noalias nonnull align 8 %ref.tmp, i32 noundef %k)
  invoke void @_ZN4cvc58internal11NodeManager10mkConstIntERKNS0_8RationalE(ptr sret(%"class.cvc5::internal::NodeTemplate") align 8 %agg.result, ptr noundef nonnull align 8 dereferenceable(3360) %0, ptr noundef nonnull align 8 dereferenceable(32) %ref.tmp)
          to label %invoke.cont unwind label %lpad

invoke.cont:                                      ; preds = %entry
  invoke void @__gmpq_clear(ptr noundef nonnull %ref.tmp)
          to label %_ZN4cvc58internal8RationalD2Ev.exit unwind label %terminate.lpad.i.i

terminate.lpad.i.i:                               ; preds = %invoke.cont
  %1 = landingpad { ptr, i32 }
          catch ptr null
  %2 = extractvalue { ptr, i32 } %1, 0
  call void @__clang_call_terminate(ptr %2) #22
  unreachable

_ZN4cvc58internal8RationalD2Ev.exit:              ; preds = %invoke.cont
  ret void

lpad:                                             ; preds = %entry
  %3 = landingpad { ptr, i32 }
          cleanup
  invoke void @__gmpq_clear(ptr noundef nonnull %ref.tmp)
          to label %_ZN4cvc58internal8RationalD2Ev.exit2 unwind label %terminate.lpad.i.i1

terminate.lpad.i.i1:                              ; preds = %lpad
  %4 = landingpad { ptr, i32 }
          catch ptr null
  %5 = extractvalue { ptr, i32 } %4, 0
  call void @__clang_call_terminate(ptr %5) #22
  unreachable

_ZN4cvc58internal8RationalD2Ev.exit2:             ; preds = %lpad
  resume { ptr, i32 } %3
}